target datalayout = "e-m:e-p270:32:32-p271:32:32-p272:64:64-i64:64-i128:128-f80:128-n8:16:32:64-S128"
target triple = "x86_64-pc-linux-gnu"

; Function Attrs: nounwind uwtable
define hidden void @mbedtls_aesni_inverse_key(ptr noundef %0, ptr noundef %1, i32 noundef %2) #0 {
  %4 = alloca ptr, align 8
  %5 = alloca ptr, align 8
  %6 = alloca i32, align 4
  %7 = alloca ptr, align 8
  %8 = alloca ptr, align 8
  store ptr %0, ptr %4, align 8, !tbaa !11
  store ptr %1, ptr %5, align 8, !tbaa !11
  store i32 %2, ptr %6, align 4, !tbaa !3
  call void @llvm.lifetime.start.p0(i64 8, ptr %7) #4
  %9 = load ptr, ptr %4, align 8, !tbaa !11
  store ptr %9, ptr %7, align 8, !tbaa !11
  call void @llvm.lifetime.start.p0(i64 8, ptr %8) #4
  %10 = load ptr, ptr %5, align 8, !tbaa !11
  %11 = load i32, ptr %6, align 4, !tbaa !3
  %12 = mul nsw i32 16, %11
  %13 = sext i32 %12 to i64
  %14 = getelementptr inbounds i8, ptr %10, i64 %13
  store ptr %14, ptr %8, align 8, !tbaa !11
  %15 = load ptr, ptr %7, align 8, !tbaa !11
  %16 = load ptr, ptr %8, align 8, !tbaa !11
  call void @llvm.memcpy.p0.p0.i64(ptr align 1 %15, ptr align 1 %16, i64 16, i1 false)
  %17 = load ptr, ptr %8, align 8, !tbaa !11
  %18 = getelementptr inbounds i8, ptr %17, i64 -16
  store ptr %18, ptr %8, align 8, !tbaa !11
  %19 = load ptr, ptr %7, align 8, !tbaa !11
  %20 = getelementptr inbounds i8, ptr %19, i64 16
  store ptr %20, ptr %7, align 8, !tbaa !11
  br label %21

21:                                               ; preds = %28, %3
  %22 = load ptr, ptr %8, align 8, !tbaa !11
  %23 = load ptr, ptr %5, align 8, !tbaa !11
  %24 = icmp ugt ptr %22, %23
  br i1 %24, label %25, label %33

25:                                               ; preds = %21
  %26 = load ptr, ptr %8, align 8, !tbaa !11
  %27 = load ptr, ptr %7, align 8, !tbaa !11
  call void asm sideeffect "movdqu ($0), %xmm0       \0A\09.byte 0x66,0x0F,0x38,0xDB,0xC0\0A\09movdqu %xmm0, ($1)       \0A\09", "r,r,~{memory},~{xmm0},~{dirflag},~{fpsr},~{flags}"(ptr %26, ptr %27) #4, !srcloc !24
  br label %28

28:                                               ; preds = %25
  %29 = load ptr, ptr %8, align 8, !tbaa !11
  %30 = getelementptr inbounds i8, ptr %29, i64 -16
  store ptr %30, ptr %8, align 8, !tbaa !11
  %31 = load ptr, ptr %7, align 8, !tbaa !11
  %32 = getelementptr inbounds i8, ptr %31, i64 16
  store ptr %32, ptr %7, align 8, !tbaa !11
  br label %21, !llvm.loop !25

33:                                               ; preds = %21
  %34 = load ptr, ptr %7, align 8, !tbaa !11
  %35 = load ptr, ptr %8, align 8, !tbaa !11
  call void @llvm.memcpy.p0.p0.i64(ptr align 1 %34, ptr align 1 %35, i64 16, i1 false)
  call void @llvm.lifetime.end.p0(i64 8, ptr %8) #4
  call void @llvm.lifetime.end.p0(i64 8, ptr %7) #4
  ret void
}