; Function Attrs: nounwind uwtable
define hidden void @mbedtls_aesni_inverse_key(ptr noundef initializes((0, 16)) %0, ptr noundef %1, i32 noundef %2) local_unnamed_addr #1 {
  %4 = shl nsw i32 %2, 4
  %5 = sext i32 %4 to i64
  %6 = getelementptr inbounds i8, ptr %1, i64 %5
  tail call void @llvm.memcpy.p0.p0.i64(ptr noundef nonnull align 1 dereferenceable(16) %0, ptr noundef nonnull align 1 dereferenceable(16) %6, i64 16, i1 false)
  %.016 = getelementptr inbounds i8, ptr %6, i64 -16
  %.01417 = getelementptr inbounds nuw i8, ptr %0, i64 16
  %7 = icmp ugt ptr %.016, %1
  br i1 %7, label %.lr.ph, label %._crit_edge

.lr.ph:                                           ; preds = %3, %.lr.ph
  %.01419 = phi ptr [ %.014, %.lr.ph ], [ %.01417, %3 ]
  %.018 = phi ptr [ %.0, %.lr.ph ], [ %.016, %3 ]
  tail call void asm sideeffect "movdqu ($0), %xmm0       \0A\09.byte 0x66,0x0F,0x38,0xDB,0xC0\0A\09movdqu %xmm0, ($1)       \0A\09", "r,r,~{memory},~{xmm0},~{dirflag},~{fpsr},~{flags}"(ptr nonnull %.018, ptr nonnull %.01419) #5, !srcloc !18
  %.0 = getelementptr inbounds i8, ptr %.018, i64 -16
  %.014 = getelementptr inbounds nuw i8, ptr %.01419, i64 16
  %8 = icmp ugt ptr %.0, %1
  br i1 %8, label %.lr.ph, label %._crit_edge, !llvm.loop !19

._crit_edge:                                      ; preds = %.lr.ph, %3
  %.0.lcssa = phi ptr [ %.016, %3 ], [ %.0, %.lr.ph ]
  %.014.lcssa = phi ptr [ %.01417, %3 ], [ %.014, %.lr.ph ]
  tail call void @llvm.memcpy.p0.p0.i64(ptr noundef nonnull align 1 dereferenceable(16) %.014.lcssa, ptr noundef nonnull align 1 dereferenceable(16) %.0.lcssa, i64 16, i1 false)
  ret void
}